; Function Attrs: mustprogress uwtable
define void @_ZN8proxygen13SessionHolder25handleTransactionDetachedEv(ptr noundef nonnull align 8 dereferenceable(152) %this) local_unnamed_addr #3 align 2 personality ptr @__gxx_personality_v0 {
entry:
  %ref.tmp2 = alloca %"class.google::LogMessageFatal", align 8
  %state_ = getelementptr inbounds i8, ptr %this, i64 80
  %0 = load i32, ptr %state_, align 8
  %cmp.not = icmp eq i32 %0, 0
  br i1 %cmp.not, label %cond.false, label %cleanup.done

cond.false:                                       ; preds = %entry
  call void @_ZN6google15LogMessageFatalC1EPKci(ptr noundef nonnull align 8 dereferenceable(96) %ref.tmp2, ptr noundef nonnull @.str, i32 noundef 370)
  %call = invoke noundef nonnull align 8 dereferenceable(8) ptr @_ZN6google10LogMessage6streamEv(ptr noundef nonnull align 8 dereferenceable(96) %ref.tmp2)
          to label %invoke.cont unwind label %lpad

invoke.cont:                                      ; preds = %cond.false
  %call4 = invoke noundef nonnull align 8 dereferenceable(8) ptr @_ZStlsISt11char_traitsIcEERSt13basic_ostreamIcT_ES5_PKc(ptr noundef nonnull align 8 dereferenceable(8) %call, ptr noundef nonnull @.str.22)
          to label %cleanup.action unwind label %lpad

cleanup.action:                                   ; preds = %invoke.cont
  call void @_ZN6google15LogMessageFatalD1Ev(ptr noundef nonnull align 8 dereferenceable(96) %ref.tmp2) #23
  unreachable

lpad:                                             ; preds = %invoke.cont, %cond.false
  %1 = landingpad { ptr, i32 }
          cleanup
  call void @_ZN6google15LogMessageFatalD1Ev(ptr noundef nonnull align 8 dereferenceable(96) %ref.tmp2) #23
  unreachable

cleanup.done:                                     ; preds = %entry
  tail call void @_ZN8proxygen13SessionHolder6unlinkEv(ptr noundef nonnull align 8 dereferenceable(152) %this)
  tail call void @_ZN8proxygen13SessionHolder4linkEv(ptr noundef nonnull align 8 dereferenceable(152) %this)
  ret void
}